target datalayout = "e-m:e-p270:32:32-p271:32:32-p272:64:64-i64:64-i128:128-f80:128-n8:16:32:64-S128"
target triple = "x86_64-pc-linux-gnu"

%struct.UCaseProps = type { ptr, ptr, ptr, ptr, %struct.UTrie2, [4 x i8] }
%struct.UTrie2 = type { ptr, ptr, ptr, i32, i32, i16, i16, i32, i32, i32, i32, ptr, i32, i8, i8, i16, ptr }

; Function Attrs: mustprogress nounwind uwtable
define i32 @ucase_fold_77(i32 noundef %0, i32 noundef %1) #3 {
  %3 = alloca i32, align 4
  %4 = alloca i32, align 4
  %5 = alloca i32, align 4
  %6 = alloca i16, align 2
  %7 = alloca ptr, align 8
  %8 = alloca i16, align 2
  %9 = alloca i32, align 4
  %10 = alloca i32, align 4
  %11 = alloca i32, align 4
  store i32 %0, ptr %4, align 4, !tbaa !11
  store i32 %1, ptr %5, align 4, !tbaa !11
  call void @llvm.lifetime.start.p0(i64 2, ptr %6) #5
  %12 = load ptr, ptr getelementptr inbounds nuw (%struct.UCaseProps, ptr @_ZL21ucase_props_singleton, i32 0, i32 4), align 8, !tbaa !19
  %13 = load i32, ptr %4, align 4, !tbaa !11
  %14 = icmp ult i32 %13, 55296
  br i1 %14, label %15, label %28

15:                                               ; preds = %2
  %16 = load ptr, ptr getelementptr inbounds nuw (%struct.UCaseProps, ptr @_ZL21ucase_props_singleton, i32 0, i32 4), align 8, !tbaa !19
  %17 = load i32, ptr %4, align 4, !tbaa !11
  %18 = ashr i32 %17, 5
  %19 = add nsw i32 0, %18
  %20 = sext i32 %19 to i64
  %21 = getelementptr inbounds i16, ptr %16, i64 %20
  %22 = load i16, ptr %21, align 2, !tbaa !25
  %23 = zext i16 %22 to i32
  %24 = shl i32 %23, 2
  %25 = load i32, ptr %4, align 4, !tbaa !11
  %26 = and i32 %25, 31
  %27 = add nsw i32 %24, %26
  br label %83

28:                                               ; preds = %2
  %29 = load i32, ptr %4, align 4, !tbaa !11
  %30 = icmp ule i32 %29, 65535
  br i1 %30, label %31, label %47

31:                                               ; preds = %28
  %32 = load ptr, ptr getelementptr inbounds nuw (%struct.UCaseProps, ptr @_ZL21ucase_props_singleton, i32 0, i32 4), align 8, !tbaa !19
  %33 = load i32, ptr %4, align 4, !tbaa !11
  %34 = icmp sle i32 %33, 56319
  %35 = select i1 %34, i32 320, i32 0
  %36 = load i32, ptr %4, align 4, !tbaa !11
  %37 = ashr i32 %36, 5
  %38 = add nsw i32 %35, %37
  %39 = sext i32 %38 to i64
  %40 = getelementptr inbounds i16, ptr %32, i64 %39
  %41 = load i16, ptr %40, align 2, !tbaa !25
  %42 = zext i16 %41 to i32
  %43 = shl i32 %42, 2
  %44 = load i32, ptr %4, align 4, !tbaa !11
  %45 = and i32 %44, 31
  %46 = add nsw i32 %43, %45
  br label %81

47:                                               ; preds = %28
  %48 = load i32, ptr %4, align 4, !tbaa !11
  %49 = icmp ugt i32 %48, 1114111
  br i1 %49, label %50, label %51

50:                                               ; preds = %47
  br label %79

51:                                               ; preds = %47
  %52 = load i32, ptr %4, align 4, !tbaa !11
  %53 = icmp sge i32 %52, 919552
  br i1 %53, label %54, label %55

54:                                               ; preds = %51
  br label %77

55:                                               ; preds = %51
  %56 = load ptr, ptr getelementptr inbounds nuw (%struct.UCaseProps, ptr @_ZL21ucase_props_singleton, i32 0, i32 4), align 8, !tbaa !19
  %57 = load ptr, ptr getelementptr inbounds nuw (%struct.UCaseProps, ptr @_ZL21ucase_props_singleton, i32 0, i32 4), align 8, !tbaa !19
  %58 = load i32, ptr %4, align 4, !tbaa !11
  %59 = ashr i32 %58, 11
  %60 = add nsw i32 2080, %59
  %61 = sext i32 %60 to i64
  %62 = getelementptr inbounds i16, ptr %57, i64 %61
  %63 = load i16, ptr %62, align 2, !tbaa !25
  %64 = zext i16 %63 to i32
  %65 = load i32, ptr %4, align 4, !tbaa !11
  %66 = ashr i32 %65, 5
  %67 = and i32 %66, 63
  %68 = add nsw i32 %64, %67
  %69 = sext i32 %68 to i64
  %70 = getelementptr inbounds i16, ptr %56, i64 %69
  %71 = load i16, ptr %70, align 2, !tbaa !25
  %72 = zext i16 %71 to i32
  %73 = shl i32 %72, 2
  %74 = load i32, ptr %4, align 4, !tbaa !11
  %75 = and i32 %74, 31
  %76 = add nsw i32 %73, %75
  br label %77

77:                                               ; preds = %55, %54
  %78 = phi i32 [ 13368, %54 ], [ %76, %55 ]
  br label %79

79:                                               ; preds = %77, %50
  %80 = phi i32 [ 3596, %50 ], [ %78, %77 ]
  br label %81

81:                                               ; preds = %79, %31
  %82 = phi i32 [ %46, %31 ], [ %80, %79 ]
  br label %83

83:                                               ; preds = %81, %15
  %84 = phi i32 [ %27, %15 ], [ %82, %81 ]
  %85 = sext i32 %84 to i64
  %86 = getelementptr inbounds i16, ptr %12, i64 %85
  %87 = load i16, ptr %86, align 2, !tbaa !25
  store i16 %87, ptr %6, align 2, !tbaa !25
  %88 = load i16, ptr %6, align 2, !tbaa !25
  %89 = zext i16 %88 to i32
  %90 = and i32 %89, 8
  %91 = icmp ne i32 %90, 0
  br i1 %91, label %104, label %92

92:                                               ; preds = %83
  %93 = load i16, ptr %6, align 2, !tbaa !25
  %94 = zext i16 %93 to i32
  %95 = and i32 %94, 2
  %96 = icmp ne i32 %95, 0
  br i1 %96, label %97, label %103

97:                                               ; preds = %92
  %98 = load i16, ptr %6, align 2, !tbaa !25
  %99 = sext i16 %98 to i32
  %100 = ashr i32 %99, 7
  %101 = load i32, ptr %4, align 4, !tbaa !11
  %102 = add nsw i32 %101, %100
  store i32 %102, ptr %4, align 4, !tbaa !11
  br label %103

103:                                              ; preds = %97, %92
  br label %289

104:                                              ; preds = %83
  call void @llvm.lifetime.start.p0(i64 8, ptr %7) #5
  %105 = load ptr, ptr getelementptr inbounds nuw (%struct.UCaseProps, ptr @_ZL21ucase_props_singleton, i32 0, i32 2), align 8, !tbaa !26
  %106 = load i16, ptr %6, align 2, !tbaa !25
  %107 = zext i16 %106 to i32
  %108 = ashr i32 %107, 4
  %109 = sext i32 %108 to i64
  %110 = getelementptr inbounds i16, ptr %105, i64 %109
  store ptr %110, ptr %7, align 8, !tbaa !27
  call void @llvm.lifetime.start.p0(i64 2, ptr %8) #5
  %111 = load ptr, ptr %7, align 8, !tbaa !27
  %112 = getelementptr inbounds nuw i16, ptr %111, i32 1
  store ptr %112, ptr %7, align 8, !tbaa !27
  %113 = load i16, ptr %111, align 2, !tbaa !25
  store i16 %113, ptr %8, align 2, !tbaa !25
  call void @llvm.lifetime.start.p0(i64 4, ptr %9) #5
  %114 = load i16, ptr %8, align 2, !tbaa !25
  %115 = zext i16 %114 to i32
  %116 = and i32 %115, 32768
  %117 = icmp ne i32 %116, 0
  br i1 %117, label %118, label %144

118:                                              ; preds = %104
  %119 = load i32, ptr %5, align 4, !tbaa !11
  %120 = and i32 %119, 7
  %121 = icmp eq i32 %120, 0
  br i1 %121, label %122, label %133

122:                                              ; preds = %118
  %123 = load i32, ptr %4, align 4, !tbaa !11
  %124 = icmp eq i32 %123, 73
  br i1 %124, label %125, label %126

125:                                              ; preds = %122
  store i32 105, ptr %3, align 4
  store i32 1, ptr %10, align 4
  br label %286

126:                                              ; preds = %122
  %127 = load i32, ptr %4, align 4, !tbaa !11
  %128 = icmp eq i32 %127, 304
  br i1 %128, label %129, label %131

129:                                              ; preds = %126
  %130 = load i32, ptr %4, align 4, !tbaa !11
  store i32 %130, ptr %3, align 4
  store i32 1, ptr %10, align 4
  br label %286

131:                                              ; preds = %126
  br label %132

132:                                              ; preds = %131
  br label %143

133:                                              ; preds = %118
  %134 = load i32, ptr %4, align 4, !tbaa !11
  %135 = icmp eq i32 %134, 73
  br i1 %135, label %136, label %137

136:                                              ; preds = %133
  store i32 305, ptr %3, align 4
  store i32 1, ptr %10, align 4
  br label %286

137:                                              ; preds = %133
  %138 = load i32, ptr %4, align 4, !tbaa !11
  %139 = icmp eq i32 %138, 304
  br i1 %139, label %140, label %141

140:                                              ; preds = %137
  store i32 105, ptr %3, align 4
  store i32 1, ptr %10, align 4
  br label %286

141:                                              ; preds = %137
  br label %142

142:                                              ; preds = %141
  br label %143

143:                                              ; preds = %142, %132
  br label %144

144:                                              ; preds = %143, %104
  %145 = load i16, ptr %8, align 2, !tbaa !25
  %146 = zext i16 %145 to i32
  %147 = and i32 %146, 512
  %148 = icmp ne i32 %147, 0
  br i1 %148, label %149, label %151

149:                                              ; preds = %144
  %150 = load i32, ptr %4, align 4, !tbaa !11
  store i32 %150, ptr %3, align 4
  store i32 1, ptr %10, align 4
  br label %286

151:                                              ; preds = %144
  %152 = load i16, ptr %8, align 2, !tbaa !25
  %153 = zext i16 %152 to i32
  %154 = and i32 %153, 16
  %155 = icmp ne i32 %154, 0
  br i1 %155, label %156, label %220

156:                                              ; preds = %151
  %157 = load i16, ptr %6, align 2, !tbaa !25
  %158 = zext i16 %157 to i32
  %159 = and i32 %158, 2
  %160 = icmp ne i32 %159, 0
  br i1 %160, label %161, label %220

161:                                              ; preds = %156
  call void @llvm.lifetime.start.p0(i64 4, ptr %11) #5
  br label %162

162:                                              ; preds = %161
  %163 = load i16, ptr %8, align 2, !tbaa !25
  %164 = zext i16 %163 to i32
  %165 = and i32 %164, 256
  %166 = icmp eq i32 %165, 0
  br i1 %166, label %167, label %181

167:                                              ; preds = %162
  %168 = load i16, ptr %8, align 2, !tbaa !25
  %169 = zext i16 %168 to i32
  %170 = and i32 %169, 15
  %171 = sext i32 %170 to i64
  %172 = getelementptr inbounds [256 x i8], ptr @_ZL11flagsOffset, i64 0, i64 %171
  %173 = load i8, ptr %172, align 1, !tbaa !28
  %174 = zext i8 %173 to i32
  %175 = load ptr, ptr %7, align 8, !tbaa !27
  %176 = sext i32 %174 to i64
  %177 = getelementptr inbounds i16, ptr %175, i64 %176
  store ptr %177, ptr %7, align 8, !tbaa !27
  %178 = load ptr, ptr %7, align 8, !tbaa !27
  %179 = load i16, ptr %178, align 2, !tbaa !25
  %180 = zext i16 %179 to i32
  store i32 %180, ptr %11, align 4, !tbaa !11
  br label %203

181:                                              ; preds = %162
  %182 = load i16, ptr %8, align 2, !tbaa !25
  %183 = zext i16 %182 to i32
  %184 = and i32 %183, 15
  %185 = sext i32 %184 to i64
  %186 = getelementptr inbounds [256 x i8], ptr @_ZL11flagsOffset, i64 0, i64 %185
  %187 = load i8, ptr %186, align 1, !tbaa !28
  %188 = zext i8 %187 to i32
  %189 = mul nsw i32 2, %188
  %190 = load ptr, ptr %7, align 8, !tbaa !27
  %191 = sext i32 %189 to i64
  %192 = getelementptr inbounds i16, ptr %190, i64 %191
  store ptr %192, ptr %7, align 8, !tbaa !27
  %193 = load ptr, ptr %7, align 8, !tbaa !27
  %194 = getelementptr inbounds nuw i16, ptr %193, i32 1
  store ptr %194, ptr %7, align 8, !tbaa !27
  %195 = load i16, ptr %193, align 2, !tbaa !25
  %196 = zext i16 %195 to i32
  store i32 %196, ptr %11, align 4, !tbaa !11
  %197 = load i32, ptr %11, align 4, !tbaa !11
  %198 = shl i32 %197, 16
  %199 = load ptr, ptr %7, align 8, !tbaa !27
  %200 = load i16, ptr %199, align 2, !tbaa !25
  %201 = zext i16 %200 to i32
  %202 = or i32 %198, %201
  store i32 %202, ptr %11, align 4, !tbaa !11
  br label %203

203:                                              ; preds = %181, %167
  br label %204

204:                                              ; preds = %203
  br label %205

205:                                              ; preds = %204
  %206 = load i16, ptr %8, align 2, !tbaa !25
  %207 = zext i16 %206 to i32
  %208 = and i32 %207, 1024
  %209 = icmp eq i32 %208, 0
  br i1 %209, label %210, label %214

210:                                              ; preds = %205
  %211 = load i32, ptr %4, align 4, !tbaa !11
  %212 = load i32, ptr %11, align 4, !tbaa !11
  %213 = add nsw i32 %211, %212
  br label %218

214:                                              ; preds = %205
  %215 = load i32, ptr %4, align 4, !tbaa !11
  %216 = load i32, ptr %11, align 4, !tbaa !11
  %217 = sub nsw i32 %215, %216
  br label %218

218:                                              ; preds = %214, %210
  %219 = phi i32 [ %213, %210 ], [ %217, %214 ]
  store i32 %219, ptr %3, align 4
  store i32 1, ptr %10, align 4
  call void @llvm.lifetime.end.p0(i64 4, ptr %11) #5
  br label %286

220:                                              ; preds = %156, %151
  %221 = load i16, ptr %8, align 2, !tbaa !25
  %222 = zext i16 %221 to i32
  %223 = and i32 %222, 2
  %224 = icmp ne i32 %223, 0
  br i1 %224, label %225, label %226

225:                                              ; preds = %220
  store i32 1, ptr %9, align 4, !tbaa !11
  br label %235

226:                                              ; preds = %220
  %227 = load i16, ptr %8, align 2, !tbaa !25
  %228 = zext i16 %227 to i32
  %229 = and i32 %228, 1
  %230 = icmp ne i32 %229, 0
  br i1 %230, label %231, label %232

231:                                              ; preds = %226
  store i32 0, ptr %9, align 4, !tbaa !11
  br label %234

232:                                              ; preds = %226
  %233 = load i32, ptr %4, align 4, !tbaa !11
  store i32 %233, ptr %3, align 4
  store i32 1, ptr %10, align 4
  br label %286

234:                                              ; preds = %231
  br label %235

235:                                              ; preds = %234, %225
  br label %236

236:                                              ; preds = %235
  %237 = load i16, ptr %8, align 2, !tbaa !25
  %238 = zext i16 %237 to i32
  %239 = and i32 %238, 256
  %240 = icmp eq i32 %239, 0
  br i1 %240, label %241, label %258

241:                                              ; preds = %236
  %242 = load i16, ptr %8, align 2, !tbaa !25
  %243 = zext i16 %242 to i32
  %244 = load i32, ptr %9, align 4, !tbaa !11
  %245 = shl i32 1, %244
  %246 = sub nsw i32 %245, 1
  %247 = and i32 %243, %246
  %248 = sext i32 %247 to i64
  %249 = getelementptr inbounds [256 x i8], ptr @_ZL11flagsOffset, i64 0, i64 %248
  %250 = load i8, ptr %249, align 1, !tbaa !28
  %251 = zext i8 %250 to i32
  %252 = load ptr, ptr %7, align 8, !tbaa !27
  %253 = sext i32 %251 to i64
  %254 = getelementptr inbounds i16, ptr %252, i64 %253
  store ptr %254, ptr %7, align 8, !tbaa !27
  %255 = load ptr, ptr %7, align 8, !tbaa !27
  %256 = load i16, ptr %255, align 2, !tbaa !25
  %257 = zext i16 %256 to i32
  store i32 %257, ptr %4, align 4, !tbaa !11
  br label %283

258:                                              ; preds = %236
  %259 = load i16, ptr %8, align 2, !tbaa !25
  %260 = zext i16 %259 to i32
  %261 = load i32, ptr %9, align 4, !tbaa !11
  %262 = shl i32 1, %261
  %263 = sub nsw i32 %262, 1
  %264 = and i32 %260, %263
  %265 = sext i32 %264 to i64
  %266 = getelementptr inbounds [256 x i8], ptr @_ZL11flagsOffset, i64 0, i64 %265
  %267 = load i8, ptr %266, align 1, !tbaa !28
  %268 = zext i8 %267 to i32
  %269 = mul nsw i32 2, %268
  %270 = load ptr, ptr %7, align 8, !tbaa !27
  %271 = sext i32 %269 to i64
  %272 = getelementptr inbounds i16, ptr %270, i64 %271
  store ptr %272, ptr %7, align 8, !tbaa !27
  %273 = load ptr, ptr %7, align 8, !tbaa !27
  %274 = getelementptr inbounds nuw i16, ptr %273, i32 1
  store ptr %274, ptr %7, align 8, !tbaa !27
  %275 = load i16, ptr %273, align 2, !tbaa !25
  %276 = zext i16 %275 to i32
  store i32 %276, ptr %4, align 4, !tbaa !11
  %277 = load i32, ptr %4, align 4, !tbaa !11
  %278 = shl i32 %277, 16
  %279 = load ptr, ptr %7, align 8, !tbaa !27
  %280 = load i16, ptr %279, align 2, !tbaa !25
  %281 = zext i16 %280 to i32
  %282 = or i32 %278, %281
  store i32 %282, ptr %4, align 4, !tbaa !11
  br label %283

283:                                              ; preds = %258, %241
  br label %284

284:                                              ; preds = %283
  br label %285

285:                                              ; preds = %284
  store i32 0, ptr %10, align 4
  br label %286

286:                                              ; preds = %285, %232, %218, %149, %140, %136, %129, %125
  call void @llvm.lifetime.end.p0(i64 4, ptr %9) #5
  call void @llvm.lifetime.end.p0(i64 2, ptr %8) #5
  call void @llvm.lifetime.end.p0(i64 8, ptr %7) #5
  %287 = load i32, ptr %10, align 4
  switch i32 %287, label %291 [
    i32 0, label %288
  ]

288:                                              ; preds = %286
  br label %289

289:                                              ; preds = %288, %103
  %290 = load i32, ptr %4, align 4, !tbaa !11
  store i32 %290, ptr %3, align 4
  store i32 1, ptr %10, align 4
  br label %291

291:                                              ; preds = %289, %286
  call void @llvm.lifetime.end.p0(i64 2, ptr %6) #5
  %292 = load i32, ptr %3, align 4
  ret i32 %292
}