; Function Attrs: mustprogress nofree norecurse nosync nounwind willreturn memory(none) uwtable
define i32 @ucase_fold_77(i32 noundef %0, i32 noundef %1) local_unnamed_addr #3 {
  %3 = icmp ult i32 %0, 55296
  br i1 %3, label %4, label %6

4:                                                ; preds = %2
  %5 = lshr i32 %0, 5
  br label %.sink.split

6:                                                ; preds = %2
  %7 = icmp ult i32 %0, 65536
  br i1 %7, label %8, label %13

8:                                                ; preds = %6
  %9 = icmp samesign ult i32 %0, 56320
  %10 = select i1 %9, i32 320, i32 0
  %11 = lshr i32 %0, 5
  %12 = add nuw nsw i32 %10, %11
  br label %.sink.split

13:                                               ; preds = %6
  %14 = icmp ugt i32 %0, 1114111
  br i1 %14, label %35, label %15

15:                                               ; preds = %13
  %16 = icmp samesign ugt i32 %0, 919551
  br i1 %16, label %35, label %17

17:                                               ; preds = %15
  %18 = lshr i32 %0, 11
  %19 = zext nneg i32 %18 to i64
  %20 = getelementptr inbounds nuw i16, ptr @_ZL21ucase_props_trieIndex, i64 %19
  %21 = getelementptr inbounds nuw i8, ptr %20, i64 4160
  %22 = load i16, ptr %21, align 2, !tbaa !14
  %23 = zext i16 %22 to i32
  %24 = lshr i32 %0, 5
  %25 = and i32 %24, 63
  %26 = add nuw nsw i32 %25, %23
  br label %.sink.split

.sink.split:                                      ; preds = %4, %17, %8
  %.sink82 = phi i32 [ %12, %8 ], [ %26, %17 ], [ %5, %4 ]
  %27 = zext nneg i32 %.sink82 to i64
  %28 = getelementptr inbounds nuw i16, ptr @_ZL21ucase_props_trieIndex, i64 %27
  %29 = load i16, ptr %28, align 2, !tbaa !14
  %30 = zext i16 %29 to i32
  %31 = shl nuw nsw i32 %30, 2
  %32 = and i32 %0, 31
  %33 = add nuw nsw i32 %31, %32
  %34 = zext nneg i32 %33 to i64
  br label %35

35:                                               ; preds = %.sink.split, %15, %13
  %36 = phi i64 [ 3596, %13 ], [ 13368, %15 ], [ %34, %.sink.split ]
  %37 = getelementptr inbounds nuw i16, ptr @_ZL21ucase_props_trieIndex, i64 %36
  %38 = load i16, ptr %37, align 2, !tbaa !14
  %39 = zext i16 %38 to i32
  %40 = and i32 %39, 8
  %.not = icmp eq i32 %40, 0
  br i1 %.not, label %41, label %47

41:                                               ; preds = %35
  %42 = and i32 %39, 2
  %.not67 = icmp eq i32 %42, 0
  br i1 %.not67, label %.thread, label %43

43:                                               ; preds = %41
  %44 = ashr i16 %38, 7
  %45 = sext i16 %44 to i32
  %46 = add nsw i32 %0, %45
  br label %.thread

47:                                               ; preds = %35
  %48 = lshr i32 %39, 4
  %49 = zext nneg i32 %48 to i64
  %50 = getelementptr inbounds nuw i16, ptr @_ZL22ucase_props_exceptions, i64 %49
  %51 = getelementptr inbounds nuw i8, ptr %50, i64 2
  %52 = load i16, ptr %50, align 2, !tbaa !14
  %53 = zext i16 %52 to i32
  %.not68 = icmp sgt i16 %52, -1
  br i1 %.not68, label %61, label %54

54:                                               ; preds = %47
  %55 = and i32 %1, 7
  %56 = icmp eq i32 %55, 0
  br i1 %56, label %57, label %59

57:                                               ; preds = %54
  switch i32 %0, label %61 [
    i32 73, label %.thread
    i32 304, label %58
  ]

58:                                               ; preds = %57
  br label %.thread

59:                                               ; preds = %54
  switch i32 %0, label %61 [
    i32 73, label %.thread
    i32 304, label %60
  ]

60:                                               ; preds = %59
  br label %.thread

61:                                               ; preds = %59, %57, %47
  %62 = and i32 %53, 512
  %.not69 = icmp eq i32 %62, 0
  br i1 %.not69, label %63, label %.thread

63:                                               ; preds = %61
  %64 = and i32 %53, 16
  %.not70 = icmp eq i32 %64, 0
  %65 = and i32 %39, 2
  %.not71 = icmp eq i32 %65, 0
  %or.cond = or i1 %.not71, %.not70
  br i1 %or.cond, label %92, label %66

66:                                               ; preds = %63
  %67 = and i32 %53, 256
  %68 = icmp eq i32 %67, 0
  %69 = and i32 %53, 15
  %70 = zext nneg i32 %69 to i64
  %71 = getelementptr inbounds nuw [256 x i8], ptr @_ZL11flagsOffset, i64 0, i64 %70
  %72 = load i8, ptr %71, align 1, !tbaa !16
  %73 = zext i8 %72 to i64
  br i1 %68, label %74, label %78

74:                                               ; preds = %66
  %75 = getelementptr inbounds nuw i16, ptr %51, i64 %73
  %76 = load i16, ptr %75, align 2, !tbaa !14
  %77 = zext i16 %76 to i32
  br label %87

78:                                               ; preds = %66
  %.idx75 = shl nuw nsw i64 %73, 2
  %79 = getelementptr inbounds nuw i8, ptr %51, i64 %.idx75
  %80 = getelementptr inbounds nuw i8, ptr %79, i64 2
  %81 = load i16, ptr %79, align 2, !tbaa !14
  %82 = zext i16 %81 to i32
  %83 = shl nuw i32 %82, 16
  %84 = load i16, ptr %80, align 2, !tbaa !14
  %85 = zext i16 %84 to i32
  %86 = or disjoint i32 %83, %85
  br label %87

87:                                               ; preds = %78, %74
  %.0 = phi i32 [ %77, %74 ], [ %86, %78 ]
  %88 = and i32 %53, 1024
  %89 = icmp eq i32 %88, 0
  %90 = sub i32 0, %.0
  %.p = select i1 %89, i32 %.0, i32 %90
  %91 = add i32 %.p, %0
  br label %.thread

92:                                               ; preds = %63
  %93 = and i32 %53, 2
  %.not72 = icmp eq i32 %93, 0
  br i1 %.not72, label %94, label %96

94:                                               ; preds = %92
  %95 = and i32 %53, 1
  %.not73 = icmp eq i32 %95, 0
  br i1 %.not73, label %.thread, label %96

96:                                               ; preds = %94, %92
  %.060 = phi i32 [ 1, %92 ], [ 0, %94 ]
  %97 = and i32 %53, 256
  %98 = icmp eq i32 %97, 0
  %notmask74 = shl nsw i32 -1, %.060
  %99 = xor i32 %notmask74, -1
  %100 = and i32 %99, %53
  %101 = zext nneg i32 %100 to i64
  %102 = getelementptr inbounds nuw [256 x i8], ptr @_ZL11flagsOffset, i64 0, i64 %101
  %103 = load i8, ptr %102, align 1, !tbaa !16
  %104 = zext i8 %103 to i64
  br i1 %98, label %105, label %109

105:                                              ; preds = %96
  %106 = getelementptr inbounds nuw i16, ptr %51, i64 %104
  %107 = load i16, ptr %106, align 2, !tbaa !14
  %108 = zext i16 %107 to i32
  br label %.thread

109:                                              ; preds = %96
  %.idx = shl nuw nsw i64 %104, 2
  %110 = getelementptr inbounds nuw i8, ptr %51, i64 %.idx
  %111 = getelementptr inbounds nuw i8, ptr %110, i64 2
  %112 = load i16, ptr %110, align 2, !tbaa !14
  %113 = zext i16 %112 to i32
  %114 = shl nuw i32 %113, 16
  %115 = load i16, ptr %111, align 2, !tbaa !14
  %116 = zext i16 %115 to i32
  %117 = or disjoint i32 %114, %116
  br label %.thread

.thread:                                          ; preds = %94, %61, %59, %57, %60, %87, %58, %109, %105, %43, %41
  %.1 = phi i32 [ %46, %43 ], [ %0, %41 ], [ %108, %105 ], [ %117, %109 ], [ %0, %94 ], [ %0, %61 ], [ 305, %59 ], [ 105, %57 ], [ 105, %60 ], [ %91, %87 ], [ %0, %58 ]
  ret i32 %.1
}